target datalayout = "e-m:e-p270:32:32-p271:32:32-p272:64:64-i64:64-i128:128-f80:128-n8:16:32:64-S128"
target triple = "x86_64-pc-linux-gnu"

%"struct.Luau::NotNull" = type { ptr }
%"struct.Luau::EqualityConstraint" = type { ptr, ptr }

; Function Attrs: mustprogress uwtable
define dso_local noundef zeroext i1 @_ZN4Luau16ConstraintSolver11tryDispatchERKNS_18EqualityConstraintENS_7NotNullIKNS_10ConstraintEEE(ptr noundef nonnull align 8 dereferenceable(1032) %0, ptr noundef nonnull align 8 dereferenceable(16) %1, ptr %2) #6 align 2 {
  %4 = alloca %"struct.Luau::NotNull", align 8
  %5 = alloca ptr, align 8
  %6 = alloca ptr, align 8
  %7 = alloca %"struct.Luau::NotNull", align 8
  %8 = alloca %"struct.Luau::NotNull", align 8
  %9 = getelementptr inbounds nuw %"struct.Luau::NotNull", ptr %4, i32 0, i32 0
  store ptr %2, ptr %9, align 8
  store ptr %0, ptr %5, align 8, !tbaa !42
  store ptr %1, ptr %6, align 8, !tbaa !554
  %10 = load ptr, ptr %5, align 8
  call void @llvm.memcpy.p0.p0.i64(ptr align 8 %7, ptr align 8 %4, i64 8, i1 false), !tbaa.struct !59
  %11 = load ptr, ptr %6, align 8, !tbaa !554
  %12 = getelementptr inbounds nuw %"struct.Luau::EqualityConstraint", ptr %11, i32 0, i32 0
  %13 = load ptr, ptr %12, align 8, !tbaa !826
  %14 = load ptr, ptr %6, align 8, !tbaa !554
  %15 = getelementptr inbounds nuw %"struct.Luau::EqualityConstraint", ptr %14, i32 0, i32 1
  %16 = load ptr, ptr %15, align 8, !tbaa !828
  %17 = getelementptr inbounds nuw %"struct.Luau::NotNull", ptr %7, i32 0, i32 0
  %18 = load ptr, ptr %17, align 8
  %19 = call noundef zeroext i1 @_ZN4Luau16ConstraintSolver5unifyIPKNS_4TypeEEEbNS_7NotNullIKNS_10ConstraintEEET_S9_(ptr noundef nonnull align 8 dereferenceable(1032) %10, ptr %18, ptr noundef %13, ptr noundef %16)
  call void @llvm.memcpy.p0.p0.i64(ptr align 8 %8, ptr align 8 %4, i64 8, i1 false), !tbaa.struct !59
  %20 = load ptr, ptr %6, align 8, !tbaa !554
  %21 = getelementptr inbounds nuw %"struct.Luau::EqualityConstraint", ptr %20, i32 0, i32 1
  %22 = load ptr, ptr %21, align 8, !tbaa !828
  %23 = load ptr, ptr %6, align 8, !tbaa !554
  %24 = getelementptr inbounds nuw %"struct.Luau::EqualityConstraint", ptr %23, i32 0, i32 0
  %25 = load ptr, ptr %24, align 8, !tbaa !826
  %26 = getelementptr inbounds nuw %"struct.Luau::NotNull", ptr %8, i32 0, i32 0
  %27 = load ptr, ptr %26, align 8
  %28 = call noundef zeroext i1 @_ZN4Luau16ConstraintSolver5unifyIPKNS_4TypeEEEbNS_7NotNullIKNS_10ConstraintEEET_S9_(ptr noundef nonnull align 8 dereferenceable(1032) %10, ptr %27, ptr noundef %22, ptr noundef %25)
  ret i1 true
}