; Function Attrs: mustprogress uwtable
define dso_local noundef zeroext i1 @_ZN4Luau16ConstraintSolver11tryDispatchERKNS_18EqualityConstraintENS_7NotNullIKNS_10ConstraintEEE(ptr noundef nonnull align 8 dereferenceable(1032) %0, ptr noundef nonnull readonly align 8 captures(none) dereferenceable(16) %1, ptr %2) local_unnamed_addr #4 align 2 {
  %4 = load ptr, ptr %1, align 8, !tbaa !795
  %5 = getelementptr inbounds nuw i8, ptr %1, i64 8
  %6 = load ptr, ptr %5, align 8, !tbaa !797
  %7 = tail call noundef zeroext i1 @_ZN4Luau16ConstraintSolver5unifyIPKNS_4TypeEEEbNS_7NotNullIKNS_10ConstraintEEET_S9_(ptr noundef nonnull align 8 dereferenceable(1032) %0, ptr %2, ptr noundef %4, ptr noundef %6)
  %8 = load ptr, ptr %5, align 8, !tbaa !797
  %9 = load ptr, ptr %1, align 8, !tbaa !795
  %10 = tail call noundef zeroext i1 @_ZN4Luau16ConstraintSolver5unifyIPKNS_4TypeEEEbNS_7NotNullIKNS_10ConstraintEEET_S9_(ptr noundef nonnull align 8 dereferenceable(1032) %0, ptr %2, ptr noundef %8, ptr noundef %9)
  ret i1 true
}